; Function Attrs: nounwind sspstrong uwtable
define internal void @mirror_read_complete(ptr noundef %op, i32 noundef %ret) #0 {
entry:
  %0 = load ptr, ptr %op, align 8
  %cmp = icmp slt i32 %ret, 0
  %offset = getelementptr inbounds nuw i8, ptr %op, i64 48
  %1 = load i64, ptr %offset, align 8
  br i1 %cmp, label %if.then, label %if.end7

if.then:                                          ; preds = %entry
  %dirty_bitmap = getelementptr inbounds nuw i8, ptr %0, i64 640
  %2 = load ptr, ptr %dirty_bitmap, align 8
  %bytes = getelementptr inbounds nuw i8, ptr %op, i64 56
  %3 = load i64, ptr %bytes, align 8
  tail call void @bdrv_set_dirty_bitmap(ptr noundef %2, i64 noundef %1, i64 noundef %3) #12
  %sub = sub i32 0, %ret
  %actively_synced.i = getelementptr inbounds nuw i8, ptr %0, i64 600
  store atomic i8 0, ptr %actively_synced.i monotonic, align 8
  %on_source_error.i = getelementptr inbounds nuw i8, ptr %0, i64 592
  %4 = load i32, ptr %on_source_error.i, align 8
  %call.i = tail call i32 @block_job_error_action(ptr noundef nonnull %0, i32 noundef %4, i32 noundef 1, i32 noundef range(i32 1, -2147483647) %sub) #12
  %cmp2 = icmp eq i32 %call.i, 1
  br i1 %cmp2, label %land.lhs.true, label %return

land.lhs.true:                                    ; preds = %if.then
  %ret3 = getelementptr inbounds nuw i8, ptr %0, i64 736
  %5 = load i32, ptr %ret3, align 8
  %cmp4 = icmp sgt i32 %5, -1
  br i1 %cmp4, label %if.then5, label %return

if.then5:                                         ; preds = %land.lhs.true
  store i32 %ret, ptr %ret3, align 8
  br label %return

if.end7:                                          ; preds = %entry
  %target = getelementptr inbounds nuw i8, ptr %0, i64 520
  %6 = load ptr, ptr %target, align 8
  %qiov = getelementptr inbounds nuw i8, ptr %op, i64 8
  %size = getelementptr inbounds nuw i8, ptr %op, i64 40
  %7 = load i64, ptr %size, align 8
  %call10 = tail call i32 @blk_co_pwritev(ptr noundef %6, i64 noundef %1, i64 noundef %7, ptr noundef nonnull %qiov, i32 noundef 0) #12
  %8 = load ptr, ptr %op, align 8
  %cmp.i = icmp slt i32 %call10, 0
  br i1 %cmp.i, label %if.then.i, label %return

if.then.i:                                        ; preds = %if.end7
  %dirty_bitmap.i = getelementptr inbounds nuw i8, ptr %8, i64 640
  %9 = load ptr, ptr %dirty_bitmap.i, align 8
  %10 = load i64, ptr %offset, align 8
  %bytes.i = getelementptr inbounds nuw i8, ptr %op, i64 56
  %11 = load i64, ptr %bytes.i, align 8
  tail call void @bdrv_set_dirty_bitmap(ptr noundef %9, i64 noundef %10, i64 noundef %11) #12
  %sub.i = sub i32 0, %call10
  %actively_synced.i.i = getelementptr inbounds nuw i8, ptr %8, i64 600
  store atomic i8 0, ptr %actively_synced.i.i monotonic, align 8
  %on_target_error.i.i = getelementptr inbounds nuw i8, ptr %8, i64 596
  %12 = load i32, ptr %on_target_error.i.i, align 4
  %call4.i.i = tail call i32 @block_job_error_action(ptr noundef nonnull %8, i32 noundef %12, i32 noundef 0, i32 noundef range(i32 1, -2147483647) %sub.i) #12
  %cmp2.i = icmp eq i32 %call4.i.i, 1
  br i1 %cmp2.i, label %land.lhs.true.i, label %return

land.lhs.true.i:                                  ; preds = %if.then.i
  %ret3.i = getelementptr inbounds nuw i8, ptr %8, i64 736
  %13 = load i32, ptr %ret3.i, align 8
  %cmp4.i = icmp sgt i32 %13, -1
  br i1 %cmp4.i, label %if.then5.i, label %return

if.then5.i:                                       ; preds = %land.lhs.true.i
  store i32 %call10, ptr %ret3.i, align 8
  br label %return

return:                                           ; preds = %if.then5.i, %land.lhs.true.i, %if.then.i, %if.end7, %if.then, %land.lhs.true, %if.then5
  %call10.sink = phi i32 [ %ret, %if.then5 ], [ %ret, %land.lhs.true ], [ %ret, %if.then ], [ %call10, %if.end7 ], [ %call10, %if.then.i ], [ %call10, %land.lhs.true.i ], [ %call10, %if.then5.i ]
  tail call void @mirror_iteration_done(ptr noundef nonnull %op, i32 noundef %call10.sink)
  ret void
}